; Function Attrs: mustprogress nofree nounwind willreturn memory(read, argmem: readwrite, inaccessiblemem: none) uwtable
define noundef ptr @_ZN10StringList9GetStringEv(ptr nocapture noundef nonnull align 8 dereferenceable(184) %0) local_unnamed_addr #6 align 2 {
  %2 = getelementptr inbounds i8, ptr %0, i64 32
  %3 = load i64, ptr %2, align 8
  %4 = getelementptr inbounds i8, ptr %0, i64 8
  %5 = load i64, ptr %4, align 8
  %.not.i = icmp ult i64 %3, %5
  br i1 %.not.i, label %6, label %_ZN10StringList9GetStringEPPw.exit

6:                                                ; preds = %1
  %7 = load ptr, ptr %0, align 8
  %8 = getelementptr inbounds i32, ptr %7, i64 %3
  %9 = tail call i64 @wcslen(ptr noundef nonnull %8) #15
  %10 = add nuw i64 %3, 1
  %11 = add i64 %10, %9
  store i64 %11, ptr %2, align 8
  br label %_ZN10StringList9GetStringEPPw.exit

_ZN10StringList9GetStringEPPw.exit:               ; preds = %1, %6
  %.sink.i = phi ptr [ %8, %6 ], [ null, %1 ]
  ret ptr %.sink.i
}